(lp1
(lp2
I180
aI115
aI0
aa(lp3
I187
aI122
aI0
aa(lp4
I174
aI113
aI0
aa(lp5
I317
aI209
aI0
aa(lp6
I194
aI134
aI0
aa(lp7
I172
aI116
aI0
aa(lp8
I148
aI94
aI0
aa(lp9
I202
aI139
aI0
aa(lp10
I142
aI92
aI0
aa(lp11
I159
aI113
aI0
aa(lp12
I166
aI114
aI0
aa(lp13
I174
aI117
aI0
aa(lp14
I150
aI99
aI0
aa(lp15
I146
aI93
aI0
aa(lp16
I187
aI131
aI0
aa(lp17
I156
aI99
aI0
aa(lp18
I200
aI136
aI0
aa(lp19
I152
aI103
aI0
aa(lp20
I162
aI105
aI0
aa(lp21
I140
aI92
aI0
aa(lp22
I188
aI127
aI0
aa(lp23
I224
aI151
aI0
aa(lp24
I134
aI85
aI0
aa(lp25
I200
aI135
aI0
aa(lp26
I176
aI117
aI0
aa(lp27
I158
aI103
aI0
aa(lp28
I95
aI61
aI0
aa(lp29
I155
aI104
aI0
aa(lp30
I172
aI117
aI0
aa(lp31
I166
aI114
aI0
aa.