(lp1
(lp2
I136
aI93
aI0
aa(lp3
I176
aI125
aI0
aa(lp4
I191
aI119
aI0
aa(lp5
I164
aI106
aI0
aa(lp6
I181
aI118
aI0
aa(lp7
I138
aI92
aI0
aa(lp8
I150
aI101
aI0
aa(lp9
I167
aI117
aI0
aa(lp10
I196
aI128
aI0
aa(lp11
I141
aI96
aI0
aa(lp12
I176
aI120
aI0
aa(lp13
I173
aI106
aI0
aa(lp14
I139
aI94
aI0
aa(lp15
I174
aI122
aI0
aa(lp16
I111
aI67
aI0
aa(lp17
I159
aI108
aI0
aa(lp18
I159
aI104
aI0
aa(lp19
I141
aI96
aI0
aa(lp20
I168
aI116
aI0
aa(lp21
I143
aI89
aI0
aa(lp22
I127
aI81
aI0
aa(lp23
I126
aI79
aI0
aa(lp24
I179
aI126
aI0
aa(lp25
I149
aI108
aI0
aa(lp26
I109
aI63
aI0
aa(lp27
I138
aI87
aI0
aa(lp28
I165
aI113
aI0
aa(lp29
I181
aI111
aI0
aa(lp30
I158
aI109
aI0
aa(lp31
I141
aI92
aI0
aa.